target datalayout = "e-m:e-p270:32:32-p271:32:32-p272:64:64-i64:64-i128:128-f80:128-n8:16:32:64-S128"
target triple = "x86_64-pc-linux-gnu"

; Function Attrs: nounwind uwtable
define i32 @Kit_TruthWordNum_64bit(i32 noundef %0) #0 {
  %2 = alloca i32, align 4
  store i32 %0, ptr %2, align 4, !tbaa !3
  %3 = load i32, ptr %2, align 4, !tbaa !3
  %4 = icmp sle i32 %3, 6
  br i1 %4, label %5, label %6

5:                                                ; preds = %1
  br label %10

6:                                                ; preds = %1
  %7 = load i32, ptr %2, align 4, !tbaa !3
  %8 = sub nsw i32 %7, 6
  %9 = shl i32 1, %8
  br label %10

10:                                               ; preds = %6, %5
  %11 = phi i32 [ 1, %5 ], [ %9, %6 ]
  ret i32 %11
}

; Function Attrs: nounwind uwtable
define void @Kit_TruthNot_64bit(ptr noundef %0, i32 noundef %1) #0 {
  %3 = alloca ptr, align 8
  %4 = alloca i32, align 4
  %5 = alloca i32, align 4
  store ptr %0, ptr %3, align 8, !tbaa !9
  store i32 %1, ptr %4, align 4, !tbaa !3
  call void @llvm.lifetime.start.p0(i64 4, ptr %5) #4
  %6 = load i32, ptr %4, align 4, !tbaa !3
  %7 = call i32 @Kit_TruthWordNum_64bit(i32 noundef %6)
  %8 = sub nsw i32 %7, 1
  store i32 %8, ptr %5, align 4, !tbaa !3
  br label %9

9:                                                ; preds = %23, %2
  %10 = load i32, ptr %5, align 4, !tbaa !3
  %11 = icmp sge i32 %10, 0
  br i1 %11, label %12, label %26

12:                                               ; preds = %9
  %13 = load ptr, ptr %3, align 8, !tbaa !9
  %14 = load i32, ptr %5, align 4, !tbaa !3
  %15 = sext i32 %14 to i64
  %16 = getelementptr inbounds i64, ptr %13, i64 %15
  %17 = load i64, ptr %16, align 8, !tbaa !7
  %18 = xor i64 %17, -1
  %19 = load ptr, ptr %3, align 8, !tbaa !9
  %20 = load i32, ptr %5, align 4, !tbaa !3
  %21 = sext i32 %20 to i64
  %22 = getelementptr inbounds i64, ptr %19, i64 %21
  store i64 %18, ptr %22, align 8, !tbaa !7
  br label %23

23:                                               ; preds = %12
  %24 = load i32, ptr %5, align 4, !tbaa !3
  %25 = add nsw i32 %24, -1
  store i32 %25, ptr %5, align 4, !tbaa !3
  br label %9, !llvm.loop !21

26:                                               ; preds = %9
  call void @llvm.lifetime.end.p0(i64 4, ptr %5) #4
  ret void
}