; Function Attrs: nofree norecurse nosync nounwind memory(argmem: readwrite) uwtable
define void @Kit_TruthNot_64bit(ptr noundef captures(none) %0, i32 noundef %1) local_unnamed_addr #3 {
  %3 = icmp slt i32 %1, 7
  %4 = add nsw i32 %1, -6
  %5 = shl nuw i32 1, %4
  %spec.select = select i1 %3, i32 1, i32 %5
  %6 = icmp sgt i32 %spec.select, 0
  br i1 %6, label %select.unfold.preheader, label %select.unfold._crit_edge

select.unfold.preheader:                          ; preds = %2
  %7 = zext nneg i32 %spec.select to i64
  br label %select.unfold

select.unfold:                                    ; preds = %select.unfold.preheader, %select.unfold
  %indvars.iv = phi i64 [ %7, %select.unfold.preheader ], [ %indvars.iv.next, %select.unfold ]
  %indvars.iv.next = add nsw i64 %indvars.iv, -1
  %8 = getelementptr inbounds nuw i64, ptr %0, i64 %indvars.iv.next
  %9 = load i64, ptr %8, align 8, !tbaa !3
  %10 = xor i64 %9, -1
  store i64 %10, ptr %8, align 8, !tbaa !3
  %11 = icmp samesign ugt i64 %indvars.iv, 1
  br i1 %11, label %select.unfold, label %select.unfold._crit_edge, !llvm.loop !16

select.unfold._crit_edge:                         ; preds = %select.unfold, %2
  ret void
}